; Function Attrs: mustprogress uwtable
define hidden void @_ZN3sls7bv_eval12init_eval_bvEP3app(ptr noundef nonnull align 8 dereferenceable(865) %0, ptr noundef nonnull %1) local_unnamed_addr #3 align 2 {
  %3 = getelementptr inbounds nuw i8, ptr %0, i64 424
  %4 = tail call noundef ptr @_ZNK4expr8get_sortEv(ptr noundef nonnull align 4 dereferenceable(16) %1)
  %5 = tail call noundef zeroext i1 @_ZNK14bv_recognizers10is_bv_sortEPK4sort(ptr noundef nonnull align 4 dereferenceable(4) %3, ptr noundef %4)
  br i1 %5, label %6, label %14

6:                                                ; preds = %2
  %7 = getelementptr inbounds nuw i8, ptr %0, i64 544
  %8 = load i32, ptr %1, align 4, !tbaa !124
  %9 = load ptr, ptr %7, align 8, !tbaa !125
  %10 = zext i32 %8 to i64
  %11 = getelementptr inbounds nuw ptr, ptr %9, i64 %10
  %12 = load ptr, ptr %11, align 8, !tbaa !126
  tail call void @_ZNK3sls7bv_eval4evalEP4exprRNS_12bv_valuationE(ptr noundef nonnull align 8 dereferenceable(865) %0, ptr noundef nonnull %1, ptr noundef nonnull align 8 dereferenceable(184) %12)
  %13 = tail call noundef zeroext i1 @_ZN3sls12bv_valuation22commit_eval_check_tabuEv(ptr noundef nonnull align 8 dereferenceable(184) %12)
  br label %14

14:                                               ; preds = %6, %2
  ret void
}